; Function Attrs: mustprogress nofree norecurse nosync nounwind willreturn memory(write, argmem: readwrite, inaccessiblemem: none) uwtable
define void @_ZN7testing8internal12UnitTestImpl32SuppressTestEventsIfInSubprocessEv(ptr noundef nonnull readonly align 8 captures(none) dereferenceable(497) %0) local_unnamed_addr #32 align 2 {
  %2 = getelementptr inbounds nuw i8, ptr %0, i64 464
  %3 = load ptr, ptr %2, align 8, !tbaa !1019
  %.not = icmp eq ptr %3, null
  br i1 %.not, label %8, label %4

4:                                                ; preds = %1
  %5 = getelementptr inbounds nuw i8, ptr %0, i64 400
  %6 = load ptr, ptr %5, align 8, !tbaa !222
  %7 = getelementptr inbounds nuw i8, ptr %6, i64 8
  store i8 0, ptr %7, align 8, !tbaa !723
  br label %8

8:                                                ; preds = %4, %1
  ret void
}